
Allocating common symbols
Common symbol       size              file

periph_clk_khz      0x4               out/system_k60.o

Memory Configuration

Name             Origin             Length             Attributes
VECTORS          0x0000000000000000 0x0000000000000410 xr
FLASH            0x0000000000000800 0x000000000007f800 xr
SRAM_U           0x000000001fff0000 0x0000000000010000 xrw
SRAM_L           0x0000000020000000 0x0000000000010000 xrw
*default*        0x0000000000000000 0xffffffffffffffff

Linker script and memory map

LOAD out/main.o
LOAD out/startup_k60.o
LOAD out/system_k60.o
LOAD out/uart.o
START GROUP
LOAD /usr/bin/../lib/gcc/arm-none-eabi/4.9.3/armv7e-m/libgcc.a
LOAD /usr/bin/../lib/gcc/arm-none-eabi/4.9.3/../../../../arm-none-eabi/lib/armv7e-m/libg.a
LOAD /usr/bin/../lib/gcc/arm-none-eabi/4.9.3/../../../../arm-none-eabi/lib/armv7e-m/libc.a
END GROUP

.vectortable    0x0000000000000000      0x410
                0x0000000000000000                __vector_table = .
                0x0000000000000000                . = ALIGN (0x4)
 *(.vectors)
 .vectors       0x0000000000000000      0x410 out/startup_k60.o
                0x0000000000000000                g_pfnVectors
                0x0000000000000410                . = ALIGN (0x4)

.text           0x0000000000000800      0x60c
                0x0000000000000800                . = ALIGN (0x4)
 *(.text)
 .text          0x0000000000000800      0x264 out/main.o
                0x0000000000000800                gpio_init
                0x0000000000000908                PORTA_IRQHandler
                0x0000000000000924                binary_display
                0x00000000000009e0                main
 .text          0x0000000000000a64       0x88 out/startup_k60.o
                0x0000000000000a64                CAN0_Rx_Warning_IRQHandler
                0x0000000000000a64                I2C0_IRQHandler
                0x0000000000000a64                CAN1_ORed_Message_buffer_IRQHandler
                0x0000000000000a64                UART3_RX_TX_IRQHandler
                0x0000000000000a64                UART0_RX_TX_IRQHandler
                0x0000000000000a64                I2C1_IRQHandler
                0x0000000000000a64                DMA2_IRQHandler
                0x0000000000000a64                ENET_Error_IRQHandler
                0x0000000000000a64                CAN0_Tx_Warning_IRQHandler
                0x0000000000000a64                PIT0_IRQHandler
                0x0000000000000a64                CAN0_ORed_Message_buffer_IRQHandler
                0x0000000000000a64                Watchdog_IRQHandler
                0x0000000000000a64                CMP2_IRQHandler
                0x0000000000000a64                I2S0_IRQHandler
                0x0000000000000a64                TSI0_IRQHandler
                0x0000000000000a64                ENET_Receive_IRQHandler
                0x0000000000000a64                ENET_1588_Timer_IRQHandler
                0x0000000000000a64                CAN1_Error_IRQHandler
                0x0000000000000a64                UART2_RX_TX_IRQHandler
                0x0000000000000a64                ADC0_IRQHandler
                0x0000000000000a64                CMT_IRQHandler
                0x0000000000000a64                UART4_RX_TX_IRQHandler
                0x0000000000000a64                SPI1_IRQHandler
                0x0000000000000a64                DMA9_IRQHandler
                0x0000000000000a64                DMA14_IRQHandler
                0x0000000000000a64                CMP1_IRQHandler
                0x0000000000000a64                PORTD_IRQHandler
                0x0000000000000a64                PORTB_IRQHandler
                0x0000000000000a64                UART4_ERR_IRQHandler
                0x0000000000000a64                ADC1_IRQHandler
                0x0000000000000a64                PIT2_IRQHandler
                0x0000000000000a64                LPTimer_IRQHandler
                0x0000000000000a64                DMA5_IRQHandler
                0x0000000000000a64                RTC_IRQHandler
                0x0000000000000a64                PDB0_IRQHandler
                0x0000000000000a64                CAN1_Bus_Off_IRQHandler
                0x0000000000000a64                FTM1_IRQHandler
                0x0000000000000a64                UART5_RX_TX_IRQHandler
                0x0000000000000a64                UART3_ERR_IRQHandler
                0x0000000000000a64                PIT3_IRQHandler
                0x0000000000000a64                SDHC_IRQHandler
                0x0000000000000a64                MCG_IRQHandler
                0x0000000000000a64                UART2_ERR_IRQHandler
                0x0000000000000a64                DMA11_IRQHandler
                0x0000000000000a64                UART5_ERR_IRQHandler
                0x0000000000000a64                Read_Collision_IRQHandler
                0x0000000000000a64                Default_Handler
                0x0000000000000a64                DMA7_IRQHandler
                0x0000000000000a64                ENET_Transmit_IRQHandler
                0x0000000000000a64                USB_IRQHandler
                0x0000000000000a64                CAN1_Tx_Warning_IRQHandler
                0x0000000000000a64                USB0_IRQHandler
                0x0000000000000a64                LLW_IRQHandler
                0x0000000000000a64                SPI2_IRQHandler
                0x0000000000000a64                CAN1_Rx_Warning_IRQHandler
                0x0000000000000a64                CAN1_Wake_Up_IRQHandler
                0x0000000000000a64                DMA13_IRQHandler
                0x0000000000000a64                DMA3_IRQHandler
                0x0000000000000a64                RNG_IRQHandler
                0x0000000000000a64                DMA0_IRQHandler
                0x0000000000000a64                DMA15_IRQHandler
                0x0000000000000a64                DAC0_IRQHandler
                0x0000000000000a64                Software_IRQHandler
                0x0000000000000a64                CAN0_Error_IRQHandler
                0x0000000000000a64                DMA4_IRQHandler
                0x0000000000000a64                PIT1_IRQHandler
                0x0000000000000a64                UART0_ERR_IRQHandler
                0x0000000000000a64                DMA_Error_IRQHandler
                0x0000000000000a64                LVD_LVW_IRQHandler
                0x0000000000000a64                SPI0_IRQHandler
                0x0000000000000a64                FTM0_IRQHandler
                0x0000000000000a64                DAC1_IRQHandler
                0x0000000000000a64                MCM_IRQHandler
                0x0000000000000a64                DMA12_IRQHandler
                0x0000000000000a64                FTFL_IRQHandler
                0x0000000000000a64                CAN0_Bus_Off_IRQHandler
                0x0000000000000a64                PORTE_IRQHandler
                0x0000000000000a64                FTM2_IRQHandler
                0x0000000000000a64                DMA8_IRQHandler
                0x0000000000000a64                DMA10_IRQHandler
                0x0000000000000a64                CAN0_Wake_Up_IRQHandler
                0x0000000000000a64                UART1_ERR_IRQHandler
                0x0000000000000a64                UART1_RX_TX_IRQHandler
                0x0000000000000a64                CMP0_IRQHandler
                0x0000000000000a64                PORTC_IRQHandler
                0x0000000000000a64                DMA6_IRQHandler
                0x0000000000000a64                DMA1_IRQHandler
                0x0000000000000a6c                Reset_Handler
 .text          0x0000000000000aec      0x15c out/system_k60.o
                0x0000000000000aec                SystemInit
 .text          0x0000000000000c48      0x1c4 out/uart.o
                0x0000000000000c48                init_uart
                0x0000000000000d18                uart_putchar
                0x0000000000000d44                uart_getchar
                0x0000000000000d70                data_ready
                0x0000000000000d9c                uart_read
                0x0000000000000db0                uartsend
                0x0000000000000dd0                puts
                0x0000000000000df8                data_available
 *(.text*)
 *(.rodata)
 *(.rodata*)
 *(.glue_7)
 .glue_7        0x0000000000000000        0x0 linker stubs
 *(.glue_7t)
 .glue_7t       0x0000000000000000        0x0 linker stubs
 *(.eh_frame)
 *(.init)
 *(.fini)
                0x0000000000000e0c                . = ALIGN (0x4)
                0x0000000000000e0c                _etext = .

.vfp11_veneer   0x0000000000000e0c        0x0
 .vfp11_veneer  0x0000000000000000        0x0 linker stubs

.v4_bx          0x0000000000000e0c        0x0
 .v4_bx         0x0000000000000000        0x0 linker stubs

.iplt           0x0000000000000e0c        0x0
 .iplt          0x0000000000000000        0x0 out/main.o

.rel.dyn        0x0000000000000e0c        0x0
 .rel.iplt      0x0000000000000000        0x0 out/main.o

.ARM.extab
 *(.ARM.extab* .gnu.linkonce.armextab.*)
                0x0000000000000e0c                __exidx_start = .

.ARM.exidx
 *(.ARM.exidx* .gnu.linkonce.armexidx.*)
                0x0000000000000e0c                __exidx_end = .

.preinit_array  0x0000000000000e0c        0x0
                0x0000000000000e0c                PROVIDE (__preinit_array_start, .)
 *(.preinit_array*)
                0x0000000000000e0c                PROVIDE (__preinit_array_end, .)

.init_array     0x0000000000000e0c        0x0
                0x0000000000000e0c                PROVIDE (__init_array_start, .)
 *(SORT(.init_array.*))
 *(.init_array*)
                0x0000000000000e0c                PROVIDE (__init_array_end, .)

.fini_array     0x0000000000000e0c        0x0
                0x0000000000000e0c                PROVIDE (__fini_array_start, .)
 *(SORT(.fini_array.*))
 *(.fini_array*)
                0x0000000000000e0c                PROVIDE (__fini_array_end, .)
                0x0000000000000e0c                __etext = .

.data           0x000000001fff0000       0x18 load address 0x0000000000000e0c
                0x000000001fff0000                . = ALIGN (0x4)
                0x000000001fff0000                _sdata = .
 *(.data)
 .data          0x000000001fff0000       0x18 out/main.o
                0x000000001fff0000                PA
                0x000000001fff0004                PE
                0x000000001fff0008                GPIOA
                0x000000001fff000c                GPIOE
                0x000000001fff0010                nvic
                0x000000001fff0014                osci
 .data          0x000000001fff0018        0x0 out/startup_k60.o
 .data          0x000000001fff0018        0x0 out/system_k60.o
 .data          0x000000001fff0018        0x0 out/uart.o
 *(.data*)
                0x000000001fff0018                . = ALIGN (0x4)
                0x000000001fff0018                _edata = .

.igot.plt       0x000000001fff0018        0x0 load address 0x0000000000000e24
 .igot.plt      0x0000000000000000        0x0 out/main.o
                0x000000001fff0018                . = ALIGN (0x4)

.bss            0x000000001fff0018        0x4 load address 0x0000000000000e24
                0x000000001fff0018                _sbss = .
 *(.bss)
 .bss           0x000000001fff0018        0x0 out/main.o
 .bss           0x000000001fff0018        0x0 out/startup_k60.o
 .bss           0x000000001fff0018        0x0 out/system_k60.o
 .bss           0x000000001fff0018        0x0 out/uart.o
 *(.bss*)
 *(COMMON)
 COMMON         0x000000001fff0018        0x4 out/system_k60.o
                0x000000001fff0018                periph_clk_khz
                0x000000001fff001c                . = ALIGN (0x4)
                0x000000001fff001c                _ebss = .

.heap           0x000000001fff001c        0x0
                0x000000001fff001c                __end__ = .
                0x000000001fff001c                end = __end__
 *(.heap*)
                0x000000001fff001c                __HeapLimit = .

.stack_dummy    0x000000001fff001c        0x0
 *(.stack*)
                0x0000000020000000                __StackTop = (ORIGIN (SRAM_U) + 0x10000)
                0x0000000020000000                __StackLimit = (__StackTop - SIZEOF (.stack_dummy))
                0x0000000020000000                PROVIDE (__stack, __StackTop)
                0x0000000000000001                ASSERT ((__StackLimit >= __HeapLimit), region RAM overflowed with stack)

.ARM.attributes
                0x0000000000000000       0x33
 *(.ARM.attributes)
 .ARM.attributes
                0x0000000000000000       0x33 out/main.o
 .ARM.attributes
                0x0000000000000033       0x33 out/startup_k60.o
 .ARM.attributes
                0x0000000000000066       0x33 out/system_k60.o
 .ARM.attributes
                0x0000000000000099       0x33 out/uart.o
OUTPUT(out/k60_gpio_demo.elf elf32-littlearm)

.debug_info     0x0000000000000000     0x1353
 .debug_info    0x0000000000000000      0x98f out/main.o
 .debug_info    0x000000000000098f       0xed out/startup_k60.o
 .debug_info    0x0000000000000a7c      0x4ec out/system_k60.o
 .debug_info    0x0000000000000f68      0x3eb out/uart.o

.debug_abbrev   0x0000000000000000      0x53a
 .debug_abbrev  0x0000000000000000      0x214 out/main.o
 .debug_abbrev  0x0000000000000214       0xab out/startup_k60.o
 .debug_abbrev  0x00000000000002bf      0x11f out/system_k60.o
 .debug_abbrev  0x00000000000003de      0x15c out/uart.o

.debug_aranges  0x0000000000000000       0x80
 .debug_aranges
                0x0000000000000000       0x20 out/main.o
 .debug_aranges
                0x0000000000000020       0x20 out/startup_k60.o
 .debug_aranges
                0x0000000000000040       0x20 out/system_k60.o
 .debug_aranges
                0x0000000000000060       0x20 out/uart.o

.debug_line     0x0000000000000000      0x320
 .debug_line    0x0000000000000000      0x104 out/main.o
 .debug_line    0x0000000000000104       0x59 out/startup_k60.o
 .debug_line    0x000000000000015d       0xed out/system_k60.o
 .debug_line    0x000000000000024a       0xd6 out/uart.o

.debug_str      0x0000000000000000      0x650
 .debug_str     0x0000000000000000      0x409 out/main.o
                                        0x459 (size before relaxing)
 .debug_str     0x0000000000000409       0x6d out/startup_k60.o
                                        0x161 (size before relaxing)
 .debug_str     0x0000000000000476      0x14d out/system_k60.o
                                        0x2f5 (size before relaxing)
 .debug_str     0x00000000000005c3       0x8d out/uart.o
                                        0x2b8 (size before relaxing)

.comment        0x0000000000000000       0x70
 .comment       0x0000000000000000       0x70 out/main.o
                                         0x71 (size before relaxing)
 .comment       0x0000000000000000       0x71 out/startup_k60.o
 .comment       0x0000000000000000       0x71 out/system_k60.o
 .comment       0x0000000000000000       0x71 out/uart.o

.debug_frame    0x0000000000000000      0x248
 .debug_frame   0x0000000000000000       0x98 out/main.o
 .debug_frame   0x0000000000000098       0x48 out/startup_k60.o
 .debug_frame   0x00000000000000e0       0x38 out/system_k60.o
 .debug_frame   0x0000000000000118      0x130 out/uart.o
